; Function Attrs: mustprogress uwtable
define noundef i32 @ucal_getDayOfWeekType_75(ptr noundef %cal, i32 noundef %dayOfWeek, ptr noundef %status) local_unnamed_addr #1 {
entry:
  %0 = load i32, ptr %status, align 4
  %cmp.i = icmp slt i32 %0, 1
  br i1 %cmp.i, label %if.end, label %return

if.end:                                           ; preds = %entry
  %vtable = load ptr, ptr %cal, align 8
  %vfn = getelementptr inbounds i8, ptr %vtable, i64 192
  %1 = load ptr, ptr %vfn, align 8
  %call1 = tail call noundef i32 %1(ptr noundef nonnull align 8 dereferenceable(618) %cal, i32 noundef %dayOfWeek, ptr noundef nonnull align 4 dereferenceable(4) %status)
  br label %return

return:                                           ; preds = %entry, %if.end
  %retval.0 = phi i32 [ %call1, %if.end ], [ 0, %entry ]
  ret i32 %retval.0
}